target datalayout = "e-m:e-p270:32:32-p271:32:32-p272:64:64-i64:64-i128:128-f80:128-n8:16:32:64-S128"
target triple = "x86_64-pc-linux-gnu"

%"class.cv::ximgproc::segmentation::PointSet" = type { i32, ptr }
%"class.cv::ximgproc::segmentation::PointSetElement" = type { i32, i32 }

; Function Attrs: mustprogress nounwind uwtable
define hidden noundef i32 @_ZN2cv8ximgproc12segmentation8PointSet12getBasePointEi(ptr noundef nonnull align 8 dereferenceable(16) %0, i32 noundef %1) #11 align 2 {
  %3 = alloca ptr, align 8
  %4 = alloca i32, align 4
  %5 = alloca i32, align 4
  store ptr %0, ptr %3, align 8, !tbaa !65
  store i32 %1, ptr %4, align 4, !tbaa !27
  %6 = load ptr, ptr %3, align 8
  call void @llvm.lifetime.start.p0(i64 4, ptr %5) #3
  %7 = load i32, ptr %4, align 4, !tbaa !27
  store i32 %7, ptr %5, align 4, !tbaa !27
  br label %8

8:                                                ; preds = %18, %2
  %9 = load i32, ptr %5, align 4, !tbaa !27
  %10 = getelementptr inbounds nuw %"class.cv::ximgproc::segmentation::PointSet", ptr %6, i32 0, i32 1
  %11 = load ptr, ptr %10, align 8, !tbaa !70
  %12 = load i32, ptr %5, align 4, !tbaa !27
  %13 = sext i32 %12 to i64
  %14 = getelementptr inbounds %"class.cv::ximgproc::segmentation::PointSetElement", ptr %11, i64 %13
  %15 = getelementptr inbounds nuw %"class.cv::ximgproc::segmentation::PointSetElement", ptr %14, i32 0, i32 0
  %16 = load i32, ptr %15, align 4, !tbaa !73
  %17 = icmp ne i32 %9, %16
  br i1 %17, label %18, label %26

18:                                               ; preds = %8
  %19 = getelementptr inbounds nuw %"class.cv::ximgproc::segmentation::PointSet", ptr %6, i32 0, i32 1
  %20 = load ptr, ptr %19, align 8, !tbaa !70
  %21 = load i32, ptr %5, align 4, !tbaa !27
  %22 = sext i32 %21 to i64
  %23 = getelementptr inbounds %"class.cv::ximgproc::segmentation::PointSetElement", ptr %20, i64 %22
  %24 = getelementptr inbounds nuw %"class.cv::ximgproc::segmentation::PointSetElement", ptr %23, i32 0, i32 0
  %25 = load i32, ptr %24, align 4, !tbaa !73
  store i32 %25, ptr %5, align 4, !tbaa !27
  br label %8, !llvm.loop !75

26:                                               ; preds = %8
  %27 = load i32, ptr %5, align 4, !tbaa !27
  %28 = getelementptr inbounds nuw %"class.cv::ximgproc::segmentation::PointSet", ptr %6, i32 0, i32 1
  %29 = load ptr, ptr %28, align 8, !tbaa !70
  %30 = load i32, ptr %4, align 4, !tbaa !27
  %31 = sext i32 %30 to i64
  %32 = getelementptr inbounds %"class.cv::ximgproc::segmentation::PointSetElement", ptr %29, i64 %31
  %33 = getelementptr inbounds nuw %"class.cv::ximgproc::segmentation::PointSetElement", ptr %32, i32 0, i32 0
  store i32 %27, ptr %33, align 4, !tbaa !73
  %34 = load i32, ptr %5, align 4, !tbaa !27
  call void @llvm.lifetime.end.p0(i64 4, ptr %5) #3
  ret i32 %34
}