; Function Attrs: mustprogress nofree norecurse nosync nounwind memory(readwrite, inaccessiblemem: none) uwtable
define hidden noundef i32 @_ZN2cv8ximgproc12segmentation8PointSet12getBasePointEi(ptr noundef nonnull readonly align 8 captures(none) dereferenceable(16) %0, i32 noundef %1) local_unnamed_addr #8 align 2 {
  %3 = getelementptr inbounds nuw i8, ptr %0, i64 8
  %4 = load ptr, ptr %3, align 8, !tbaa !54
  br label %5

5:                                                ; preds = %5, %2
  %.0 = phi i32 [ %1, %2 ], [ %8, %5 ]
  %6 = sext i32 %.0 to i64
  %7 = getelementptr inbounds %"class.cv::ximgproc::segmentation::PointSetElement", ptr %4, i64 %6
  %8 = load i32, ptr %7, align 4, !tbaa !60
  %.not = icmp eq i32 %.0, %8
  br i1 %.not, label %9, label %5, !llvm.loop !62

9:                                                ; preds = %5
  %10 = sext i32 %1 to i64
  %11 = getelementptr inbounds %"class.cv::ximgproc::segmentation::PointSetElement", ptr %4, i64 %10
  store i32 %.0, ptr %11, align 4, !tbaa !60
  ret i32 %.0
}